; Function Attrs: mustprogress nounwind uwtable
define dso_local noundef zeroext i1 @_ZN4llvm15StatepointOpers13isFoldableRegEPKNS_12MachineInstrENS_8RegisterE(ptr noundef %0, i32 %1) local_unnamed_addr #0 align 2 {
  %3 = getelementptr inbounds nuw i8, ptr %0, i64 68
  %4 = load i16, ptr %3, align 4
  %.not = icmp eq i16 %4, 31
  br i1 %.not, label %5, label %_ZNK4llvm15StatepointOpers13isFoldableRegENS_8RegisterE.exit

5:                                                ; preds = %2
  %6 = tail call noundef i32 @_ZNK4llvm12MachineInstr18getNumExplicitDefsEv(ptr noundef nonnull align 8 dereferenceable(70) %0) #19
  %7 = getelementptr inbounds nuw i8, ptr %0, i64 16
  %8 = load ptr, ptr %7, align 8
  %9 = getelementptr inbounds nuw i8, ptr %8, i64 9
  %10 = load i8, ptr %9, align 1
  %11 = zext i8 %10 to i32
  %12 = add i32 %6, %11
  %13 = add i32 %12, 2
  %14 = getelementptr inbounds nuw i8, ptr %0, i64 32
  %15 = load ptr, ptr %14, align 8
  %16 = zext i32 %13 to i64
  %17 = getelementptr inbounds %"class.llvm::MachineOperand", ptr %15, i64 %16, i32 3
  %18 = load i64, ptr %17, align 8
  %19 = trunc i64 %18 to i32
  %20 = add i32 %12, 4
  %21 = add i32 %20, %19
  %22 = tail call noundef i32 @_ZNK4llvm12MachineInstr18getNumExplicitDefsEv(ptr noundef nonnull align 8 dereferenceable(70) %0) #19
  %23 = zext i32 %22 to i64
  %24 = getelementptr inbounds %"class.llvm::MachineOperand", ptr %15, i64 %23
  %25 = load ptr, ptr %14, align 8
  %26 = getelementptr inbounds nuw i8, ptr %0, i64 40
  %27 = load i24, ptr %26, align 8
  %28 = zext i24 %27 to i64
  %29 = getelementptr inbounds %"class.llvm::MachineOperand", ptr %25, i64 %28
  %.not15.i = icmp eq ptr %24, %29
  br i1 %.not15.i, label %_ZNK4llvm15StatepointOpers13isFoldableRegENS_8RegisterE.exit, label %.lr.ph.i

.lr.ph.i:                                         ; preds = %5, %.critedge.i
  %.01116.i = phi ptr [ %39, %.critedge.i ], [ %24, %5 ]
  %30 = tail call noundef i32 @_ZNK4llvm14MachineOperand12getOperandNoEv(ptr noundef nonnull align 8 dereferenceable(32) %.01116.i) #19
  %.not12.i = icmp ult i32 %30, %21
  br i1 %.not12.i, label %31, label %_ZNK4llvm15StatepointOpers13isFoldableRegENS_8RegisterE.exit

31:                                               ; preds = %.lr.ph.i
  %32 = load i32, ptr %.01116.i, align 8
  %33 = and i32 %32, 255
  %34 = icmp eq i32 %33, 0
  br i1 %34, label %35, label %.critedge.i

35:                                               ; preds = %31
  %36 = getelementptr inbounds nuw i8, ptr %.01116.i, i64 4
  %37 = load i32, ptr %36, align 4
  %38 = icmp eq i32 %37, %1
  br i1 %38, label %_ZNK4llvm15StatepointOpers13isFoldableRegENS_8RegisterE.exit, label %.critedge.i

.critedge.i:                                      ; preds = %35, %31
  %39 = getelementptr inbounds i8, ptr %.01116.i, i64 32
  %.not.i = icmp eq ptr %39, %29
  br i1 %.not.i, label %_ZNK4llvm15StatepointOpers13isFoldableRegENS_8RegisterE.exit, label %.lr.ph.i

_ZNK4llvm15StatepointOpers13isFoldableRegENS_8RegisterE.exit: ; preds = %.critedge.i, %35, %.lr.ph.i, %5, %2
  %.0 = phi i1 [ false, %2 ], [ true, %5 ], [ false, %35 ], [ true, %.lr.ph.i ], [ true, %.critedge.i ]
  ret i1 %.0
}